target datalayout = "e-m:e-p270:32:32-p271:32:32-p272:64:64-i64:64-i128:128-f80:128-n8:16:32:64-S128"
target triple = "x86_64-pc-linux-gnu"

%"class.icu_77::ErrorCode" = type <{ ptr, i32, [4 x i8] }>
%"class.icu_77::IcuToolErrorCode" = type { %"class.icu_77::ErrorCode.base", ptr }
%"class.icu_77::ErrorCode.base" = type <{ ptr, i32 }>
%struct.AddRangeHelper = type { ptr }

@_ZTVN6icu_7716IcuToolErrorCodeE = available_externally unnamed_addr constant { [5 x ptr] } { [5 x ptr] [ptr null, ptr @_ZTIN6icu_7716IcuToolErrorCodeE, ptr @_ZN6icu_7716IcuToolErrorCodeD1Ev, ptr @_ZN6icu_7716IcuToolErrorCodeD0Ev, ptr @_ZNK6icu_7716IcuToolErrorCode13handleFailureEv] }, align 8
@_ZTVN6icu_779ErrorCodeE = external unnamed_addr constant { [5 x ptr] }, align 8
@.str.106 = private unnamed_addr constant [18 x i8] c"addRangeToUCPTrie\00", align 1
@.str.107 = private unnamed_addr constant [9 x i8] c"setRange\00", align 1

; Function Attrs: mustprogress nounwind uwtable
define linkonce_odr dso_local void @_ZN6icu_779ErrorCodeC2Ev(ptr noundef nonnull align 8 dereferenceable(12) %0) unnamed_addr #4 comdat align 2 {
  %2 = alloca ptr, align 8
  store ptr %0, ptr %2, align 8, !tbaa !24
  %3 = load ptr, ptr %2, align 8
  store ptr getelementptr inbounds inrange(-16, 24) ({ [5 x ptr] }, ptr @_ZTVN6icu_779ErrorCodeE, i32 0, i32 0, i32 2), ptr %3, align 8, !tbaa !30
  %4 = getelementptr inbounds nuw %"class.icu_77::ErrorCode", ptr %3, i32 0, i32 1
  store i32 0, ptr %4, align 8, !tbaa !26
  ret void
}

; Function Attrs: mustprogress nounwind uwtable
define linkonce_odr dso_local noundef ptr @_ZN6icu_779ErrorCodecvP10UErrorCodeEv(ptr noundef nonnull align 8 dereferenceable(12) %0) #4 comdat align 2 {
  %2 = alloca ptr, align 8
  store ptr %0, ptr %2, align 8, !tbaa !24
  %3 = load ptr, ptr %2, align 8
  %4 = getelementptr inbounds nuw %"class.icu_77::ErrorCode", ptr %3, i32 0, i32 1
  ret ptr %4
}

; Function Attrs: mustprogress uwtable
define linkonce_odr dso_local void @_ZN6icu_7716IcuToolErrorCodeC2EPKc(ptr noundef nonnull align 8 dereferenceable(24) %0, ptr noundef %1) unnamed_addr #5 comdat align 2 {
  %3 = alloca ptr, align 8
  %4 = alloca ptr, align 8
  store ptr %0, ptr %3, align 8, !tbaa !42
  store ptr %1, ptr %4, align 8, !tbaa !18
  %5 = load ptr, ptr %3, align 8
  call void @_ZN6icu_779ErrorCodeC2Ev(ptr noundef nonnull align 8 dereferenceable(12) %5)
  store ptr getelementptr inbounds inrange(-16, 24) ({ [5 x ptr] }, ptr @_ZTVN6icu_7716IcuToolErrorCodeE, i32 0, i32 0, i32 2), ptr %5, align 8, !tbaa !30
  %6 = getelementptr inbounds nuw %"class.icu_77::IcuToolErrorCode", ptr %5, i32 0, i32 1
  %7 = load ptr, ptr %4, align 8, !tbaa !18
  store ptr %7, ptr %6, align 8, !tbaa !44
  ret void
}

; Function Attrs: mustprogress uwtable
define internal noundef signext i8 @_ZL17addRangeToUCPTriePKviij(ptr noundef %0, i32 noundef %1, i32 noundef %2, i32 noundef %3) #5 personality ptr @__gxx_personality_v0 {
  %5 = alloca ptr, align 8
  %6 = alloca i32, align 4
  %7 = alloca i32, align 4
  %8 = alloca i32, align 4
  %9 = alloca %"class.icu_77::IcuToolErrorCode", align 8
  %10 = alloca ptr, align 8
  %11 = alloca ptr, align 8
  %12 = alloca i32, align 4
  store ptr %0, ptr %5, align 8, !tbaa !23
  store i32 %1, ptr %6, align 4, !tbaa !15
  store i32 %2, ptr %7, align 4, !tbaa !15
  store i32 %3, ptr %8, align 4, !tbaa !15
  call void @llvm.lifetime.start.p0(i64 24, ptr %9) #3
  call void @_ZN6icu_7716IcuToolErrorCodeC2EPKc(ptr noundef nonnull align 8 dereferenceable(24) %9, ptr noundef @.str.106)
  call void @llvm.lifetime.start.p0(i64 8, ptr %10) #3
  %13 = load ptr, ptr %5, align 8, !tbaa !23
  %14 = getelementptr inbounds nuw %struct.AddRangeHelper, ptr %13, i32 0, i32 0
  %15 = load ptr, ptr %14, align 8, !tbaa !177
  store ptr %15, ptr %10, align 8, !tbaa !63
  %16 = load ptr, ptr %10, align 8, !tbaa !63
  %17 = load i32, ptr %6, align 4, !tbaa !15
  %18 = load i32, ptr %7, align 4, !tbaa !15
  %19 = load i32, ptr %8, align 4, !tbaa !15
  %20 = call noundef ptr @_ZN6icu_779ErrorCodecvP10UErrorCodeEv(ptr noundef nonnull align 8 dereferenceable(12) %9)
  invoke void @umutablecptrie_setRange_77(ptr noundef %16, i32 noundef %17, i32 noundef %18, i32 noundef %19, ptr noundef %20)
          to label %21 unwind label %23

21:                                               ; preds = %4
  invoke void @_Z11handleErrorRN6icu_779ErrorCodeEiPKc(ptr noundef nonnull align 8 dereferenceable(12) %9, i32 noundef 1284, ptr noundef @.str.107)
          to label %22 unwind label %23

22:                                               ; preds = %21
  call void @llvm.lifetime.end.p0(i64 8, ptr %10) #3
  call void @_ZN6icu_7716IcuToolErrorCodeD1Ev(ptr noundef nonnull align 8 dereferenceable(24) %9) #3
  call void @llvm.lifetime.end.p0(i64 24, ptr %9) #3
  ret i8 1

23:                                               ; preds = %21, %4
  %24 = landingpad { ptr, i32 }
          cleanup
  %25 = extractvalue { ptr, i32 } %24, 0
  store ptr %25, ptr %11, align 8
  %26 = extractvalue { ptr, i32 } %24, 1
  store i32 %26, ptr %12, align 4
  call void @llvm.lifetime.end.p0(i64 8, ptr %10) #3
  call void @_ZN6icu_7716IcuToolErrorCodeD1Ev(ptr noundef nonnull align 8 dereferenceable(24) %9) #3
  call void @llvm.lifetime.end.p0(i64 24, ptr %9) #3
  br label %27

27:                                               ; preds = %23
  %28 = load ptr, ptr %11, align 8
  %29 = load i32, ptr %12, align 4
  %30 = insertvalue { ptr, i32 } poison, ptr %28, 0
  %31 = insertvalue { ptr, i32 } %30, i32 %29, 1
  resume { ptr, i32 } %31
}