; Function Attrs: mustprogress uwtable
define internal noundef signext i8 @_ZL17addRangeToUCPTriePKviij(ptr noundef readonly captures(none) %0, i32 noundef %1, i32 noundef %2, i32 noundef %3) #4 personality ptr @__gxx_personality_v0 {
  %5 = alloca %"class.icu_77::IcuToolErrorCode", align 8
  call void @llvm.lifetime.start.p0(i64 24, ptr nonnull %5) #28
  %6 = getelementptr inbounds nuw i8, ptr %5, i64 8
  store i32 0, ptr %6, align 8, !tbaa !16
  store ptr getelementptr inbounds nuw inrange(-16, 24) (i8, ptr @_ZTVN6icu_7716IcuToolErrorCodeE, i64 16), ptr %5, align 8, !tbaa !18
  %7 = getelementptr inbounds nuw i8, ptr %5, i64 16
  store ptr @.str.106, ptr %7, align 8, !tbaa !20
  %8 = load ptr, ptr %0, align 8, !tbaa !164
  invoke void @umutablecptrie_setRange_77(ptr noundef %8, i32 noundef %1, i32 noundef %2, i32 noundef %3, ptr noundef nonnull %6)
          to label %9 unwind label %11

9:                                                ; preds = %4
  invoke void @_Z11handleErrorRN6icu_779ErrorCodeEiPKc(ptr noundef nonnull align 8 dereferenceable(12) %5, i32 noundef 1284, ptr noundef nonnull @.str.107)
          to label %10 unwind label %11

10:                                               ; preds = %9
  call void @_ZN6icu_7716IcuToolErrorCodeD1Ev(ptr noundef nonnull align 8 dereferenceable(24) %5) #28
  call void @llvm.lifetime.end.p0(i64 24, ptr nonnull %5) #28
  ret i8 1

11:                                               ; preds = %9, %4
  %12 = landingpad { ptr, i32 }
          cleanup
  call void @_ZN6icu_7716IcuToolErrorCodeD1Ev(ptr noundef nonnull align 8 dereferenceable(24) %5) #28
  call void @llvm.lifetime.end.p0(i64 24, ptr nonnull %5) #28
  resume { ptr, i32 } %12
}